; Function Attrs: mustprogress uwtable
define noundef double @_ZNK35colvarbias_restraint_harmonic_walls24d_restraint_potential_dkEm(ptr noundef nonnull align 8 dereferenceable(120) %0, i64 noundef %1) unnamed_addr #4 align 2 {
  %3 = load ptr, ptr %0, align 8
  %4 = getelementptr inbounds i8, ptr %3, i64 104
  %5 = load ptr, ptr %4, align 8
  %6 = tail call noundef double %5(ptr noundef nonnull align 8 dereferenceable(120) %0, i64 noundef %1)
  %7 = fcmp ogt double %6, 0.000000e+00
  %.in.v = select i1 %7, i64 112, i64 104
  %.in = getelementptr inbounds i8, ptr %0, i64 %.in.v
  %8 = load double, ptr %.in, align 8
  %9 = fmul double %8, 5.000000e-01
  %10 = load ptr, ptr %0, align 8
  %11 = getelementptr i8, ptr %10, i64 -24
  %12 = load i64, ptr %11, align 8
  %13 = getelementptr inbounds i8, ptr %0, i64 %12
  %14 = getelementptr inbounds i8, ptr %13, i64 152
  %sext = shl i64 %1, 32
  %15 = ashr exact i64 %sext, 32
  %16 = load ptr, ptr %14, align 8
  %17 = getelementptr inbounds ptr, ptr %16, i64 %15
  %18 = load ptr, ptr %17, align 8
  %19 = getelementptr inbounds i8, ptr %18, i64 472
  %20 = load double, ptr %19, align 8
  %21 = fmul double %20, %20
  %22 = fdiv double %9, %21
  %23 = fmul double %6, %22
  %24 = fmul double %6, %23
  ret double %24
}